target datalayout = "e-m:e-p270:32:32-p271:32:32-p272:64:64-i64:64-i128:128-f80:128-n8:16:32:64-S128"
target triple = "x86_64-pc-linux-gnu"

@the_repository = external global ptr, align 8
@.str.70 = private unnamed_addr constant [34 x i8] c"cannot read note %s for object %s\00", align 1
@.str.71 = private unnamed_addr constant [39 x i8] c"blob expected in note %s for object %s\00", align 1

; Function Attrs: nounwind uwtable
define internal void @write_note_to_worktree(ptr noundef %0, ptr noundef %1) #0 {
  %3 = alloca ptr, align 8
  %4 = alloca ptr, align 8
  %5 = alloca i32, align 4
  %6 = alloca i64, align 8
  %7 = alloca ptr, align 8
  store ptr %0, ptr %3, align 8, !tbaa !20
  store ptr %1, ptr %4, align 8, !tbaa !20
  call void @llvm.lifetime.start.p0(i64 4, ptr %5) #12
  call void @llvm.lifetime.start.p0(i64 8, ptr %6) #12
  call void @llvm.lifetime.start.p0(i64 8, ptr %7) #12
  %8 = load ptr, ptr @the_repository, align 8, !tbaa !4
  %9 = load ptr, ptr %4, align 8, !tbaa !20
  %10 = call ptr @repo_read_object_file(ptr noundef %8, ptr noundef %9, ptr noundef %5, ptr noundef %6)
  store ptr %10, ptr %7, align 8, !tbaa !122
  %11 = load ptr, ptr %7, align 8, !tbaa !122
  %12 = icmp ne ptr %11, null
  br i1 %12, label %18, label %13

13:                                               ; preds = %2
  %14 = load ptr, ptr %4, align 8, !tbaa !20
  %15 = call ptr @oid_to_hex(ptr noundef %14)
  %16 = load ptr, ptr %3, align 8, !tbaa !20
  %17 = call ptr @oid_to_hex(ptr noundef %16)
  call void (ptr, ...) @die(ptr noundef @.str.70, ptr noundef %15, ptr noundef %17) #13
  unreachable

18:                                               ; preds = %2
  %19 = load i32, ptr %5, align 4, !tbaa !24
  %20 = icmp ne i32 %19, 3
  br i1 %20, label %21, label %26

21:                                               ; preds = %18
  %22 = load ptr, ptr %4, align 8, !tbaa !20
  %23 = call ptr @oid_to_hex(ptr noundef %22)
  %24 = load ptr, ptr %3, align 8, !tbaa !20
  %25 = call ptr @oid_to_hex(ptr noundef %24)
  call void (ptr, ...) @die(ptr noundef @.str.71, ptr noundef %23, ptr noundef %25) #13
  unreachable

26:                                               ; preds = %18
  %27 = load ptr, ptr %3, align 8, !tbaa !20
  %28 = load ptr, ptr %7, align 8, !tbaa !122
  %29 = load i64, ptr %6, align 8, !tbaa !84
  call void @write_buf_to_worktree(ptr noundef %27, ptr noundef %28, i64 noundef %29)
  %30 = load ptr, ptr %7, align 8, !tbaa !122
  call void @free(ptr noundef %30) #12
  call void @llvm.lifetime.end.p0(i64 8, ptr %7) #12
  call void @llvm.lifetime.end.p0(i64 8, ptr %6) #12
  call void @llvm.lifetime.end.p0(i64 4, ptr %5) #12
  ret void
}