; Function Attrs: nounwind uwtable
define internal fastcc void @write_note_to_worktree(ptr noundef %0, ptr noundef %1) unnamed_addr #0 {
  %3 = alloca i32, align 4
  %4 = alloca i64, align 8
  call void @llvm.lifetime.start.p0(i64 4, ptr nonnull %3) #17
  call void @llvm.lifetime.start.p0(i64 8, ptr nonnull %4) #17
  %5 = load ptr, ptr @the_repository, align 8, !tbaa !17
  %6 = call ptr @repo_read_object_file(ptr noundef %5, ptr noundef %1, ptr noundef nonnull %3, ptr noundef nonnull %4) #17
  %.not = icmp eq ptr %6, null
  br i1 %.not, label %7, label %10

7:                                                ; preds = %2
  %8 = call ptr @oid_to_hex(ptr noundef %1) #17
  %9 = call ptr @oid_to_hex(ptr noundef %0) #17
  call void (ptr, ...) @die(ptr noundef nonnull @.str.70, ptr noundef %8, ptr noundef %9) #18
  unreachable

10:                                               ; preds = %2
  %11 = load i32, ptr %3, align 4, !tbaa !81
  %.not9 = icmp eq i32 %11, 3
  br i1 %.not9, label %15, label %12

12:                                               ; preds = %10
  %13 = call ptr @oid_to_hex(ptr noundef %1) #17
  %14 = call ptr @oid_to_hex(ptr noundef %0) #17
  call void (ptr, ...) @die(ptr noundef nonnull @.str.71, ptr noundef %13, ptr noundef %14) #18
  unreachable

15:                                               ; preds = %10
  %16 = load i64, ptr %4, align 8, !tbaa !107
  call fastcc void @write_buf_to_worktree(ptr noundef %0, ptr noundef %6, i64 noundef %16)
  call void @free(ptr noundef nonnull %6) #17
  call void @llvm.lifetime.end.p0(i64 8, ptr nonnull %4) #17
  call void @llvm.lifetime.end.p0(i64 4, ptr nonnull %3) #17
  ret void
}